ccopy_reg
_reconstructor
p0
(c__main__
Tree
p1
c__builtin__
object
p2
Ntp3
Rp4
(dp5
S'right'
p6
g0
(g1
g2
Ntp7
Rp8
(dp9
g6
g0
(g1
g2
Ntp10
Rp11
(dp12
g6
NsS'attr'
p13
S'Iris-virginica'
p14
sS'split'
p15
(lp16
I0
acnumpy.core.multiarray
scalar
p17
(cnumpy
dtype
p18
(S'i8'
p19
I0
I1
tp20
Rp21
(I3
S'<'
p22
NNNI-1
I-1
I0
tp23
bS'\x02\x00\x00\x00\x00\x00\x00\x00'
p24
tp25
Rp26
ag17
(g21
S'&\x00\x00\x00\x00\x00\x00\x00'
p27
tp28
Rp29
asS'boundary'
p30
NsS'left'
p31
NsS'type'
p32
S'leaf'
p33
sS'name'
p34
I4
sbsg13
g17
(g21
S'\x03\x00\x00\x00\x00\x00\x00\x00'
p35
tp36
Rp37
sg15
(lp38
I0
ag17
(g21
S'(\x00\x00\x00\x00\x00\x00\x00'
p39
tp40
Rp41
ag17
(g21
S')\x00\x00\x00\x00\x00\x00\x00'
p42
tp43
Rp44
asg30
F1.55
sg31
g0
(g1
g2
Ntp45
Rp46
(dp47
g6
Nsg13
S'Iris-versicolor'
p48
sg15
(lp49
I0
ag17
(g21
S'&\x00\x00\x00\x00\x00\x00\x00'
p50
tp51
Rp52
ag17
(g21
S'\x03\x00\x00\x00\x00\x00\x00\x00'
p53
tp54
Rp55
asg30
Nsg31
Nsg32
g33
sg34
I3
sbsg32
S'decision'
p56
sg34
I2
sbsg13
g17
(g21
S'\x02\x00\x00\x00\x00\x00\x00\x00'
p57
tp58
Rp59
sg15
(lp60
g17
(g21
S"'\x00\x00\x00\x00\x00\x00\x00"
p61
tp62
Rp63
ag17
(g21
S'(\x00\x00\x00\x00\x00\x00\x00'
p64
tp65
Rp66
ag17
(g21
S')\x00\x00\x00\x00\x00\x00\x00'
p67
tp68
Rp69
asg30
F2.5999999999999996
sg31
g0
(g1
g2
Ntp70
Rp71
(dp72
g6
Nsg13
S'Iris-setosa'
p73
sg15
(lp74
g17
(g21
S"'\x00\x00\x00\x00\x00\x00\x00"
p75
tp76
Rp77
aI0
aI0
asg30
Nsg31
Nsg32
g33
sg34
I1
sbsg32
g56
sg34
I0
sb.